(lp0
(lp1
I20
aI40
aI60
aI80
aI100
aI120
aI140
aI160
aI180
aI200
aI220
aI240
aI260
aI280
aI300
aI320
aI340
aI360
aI380
aI400
aI420
aI440
aI460
aI480
aI500
aI520
aI540
aI560
aI580
aI600
aI620
aI640
aI660
aI680
aI700
aI720
aI740
aI760
aI780
aI800
aI820
aI840
aI860
aI880
aI900
aI920
aI940
aI960
aI980
aI1000
aI1020
aI1040
aI1060
aI1080
aI1100
aI1120
aI1140
aI1160
aI1180
aI1200
aI1220
aI1240
aI1260
aI1280
aI1300
aI1320
aI1340
aI1360
aI1380
aI1400
aI1420
aI1440
aI1460
aI1480
aI1500
aI1520
aI1540
aI1560
aI1580
aI1600
aI1620
aI1640
aI1660
aI1680
aI1700
aI1720
aI1740
aI1760
aI1780
aI1800
aI1820
aI1840
aI1860
aI1880
aI1900
aI1920
aI1940
aI1960
aI1980
aI2000
aI2020
aI2040
aI2060
aI2080
aI2100
aI2120
aI2140
aI2160
aI2180
aI2200
aI2220
aI2240
aI2260
aI2280
aI2300
aI2320
aI2340
aI2360
aI2380
aI2400
aI2420
aI2440
aI2460
aI2480
aI2500
aI2520
aI2540
aI2560
aI2580
aI2600
aI2620
aI2640
aI2660
aI2680
aI2700
aI2720
aI2740
aI2760
aI2780
aI2800
aI2820
aI2840
aI2860
aI2880
aI2900
aI2920
aI2940
aI2960
aI2980
aI3000
aI3020
aI3040
aI3060
aI3080
aI3100
aI3120
aI3140
aI3160
aI3180
aI3200
aI3220
aI3240
aI3260
aI3280
aI3300
aI3320
aI3340
aI3360
aI3380
aI3400
aI3420
aI3440
aI3460
aI3480
aI3500
aI3520
aI3540
aI3560
aI3580
aI3600
aI3620
aI3640
aI3660
aI3680
aI3700
aI3720
aI3740
aI3760
aI3780
aI3800
aI3820
aI3840
aI3860
aI3880
aI3900
aI3920
aI3940
aI3960
aI3980
aI4000
aI4020
aI4040
aI4060
aI4080
aI4100
aI4120
aI4140
aI4160
aI4180
aI4200
aI4220
aI4240
aI4260
aI4280
aI4300
aI4320
aI4340
aI4360
aI4380
aI4400
aI4420
aI4440
aI4460
aI4480
aI4500
aI4520
aI4540
aI4560
aI4580
aI4600
aI4620
aI4640
aI4660
aI4680
aI4700
aI4720
aI4740
aI4760
aI4780
aI4800
aI4820
aI4840
aI4860
aI4880
aI4900
aI4920
aI4940
aI4960
aI4980
aI5000
aI5020
aI5040
aI5060
aI5080
aI5100
aI5120
aI5140
aI5160
aI5180
aI5200
aI5220
aI5240
aI5260
aI5280
aI5300
aI5320
aI5340
aI5360
aI5380
aI5400
aI5420
aI5440
aI5460
aI5480
aI5500
aI5520
aI5540
aI5560
aI5580
aI5600
aI5620
aI5640
aI5660
aI5680
aI5700
aI5720
aI5740
aI5760
aI5780
aI5800
aI5820
aI5840
aI5860
aI5880
aI5900
aI5920
aI5940
aI5960
aI5980
aI6000
aI6020
aI6040
aI6060
aI6080
aI6100
aI6120
aI6140
aI6160
aI6180
aI6200
aI6220
aI6240
aI6260
aI6280
aI6300
aI6320
aI6340
aI6360
aI6380
aI6400
aI6420
aI6440
aI6460
aI6480
aI6500
aI6520
aI6540
aI6560
aI6580
aI6600
aI6620
aI6640
aI6660
aI6680
aI6700
aI6720
aI6740
aI6760
aI6780
aI6800
aI6820
aI6840
aI6860
aI6880
aI6900
aI6920
aI6940
aI6960
aI6980
aI7000
aI7020
aI7040
aI7060
aI7080
aI7100
aI7120
aI7140
aI7160
aI7180
aI7200
aI7220
aI7240
aI7260
aI7280
aI7300
aI7320
aI7340
aI7360
aI7380
aI7400
aI7420
aI7440
aI7460
aI7480
aI7500
aI7520
aI7540
aI7560
aI7580
aI7600
aI7620
aI7640
aI7660
aI7680
aI7700
aI7720
aI7740
aI7760
aI7780
aI7800
aI7820
aI7840
aI7860
aI7880
aI7900
aI7920
aI7940
aI7960
aI7980
aI8000
aI8020
aI8040
aI8060
aI8080
aI8100
aI8120
aI8140
aI8160
aI8180
aI8200
aI8220
aI8240
aI8260
aI8280
aI8300
aI8320
aI8340
aI8360
aI8380
aI8400
aI8420
aI8440
aI8460
aI8480
aI8500
aI8520
aI8540
aI8560
aI8580
aI8600
aI8620
aI8640
aI8660
aI8680
aI8700
aI8720
aI8740
aI8760
aI8780
aI8800
aI8820
aI8840
aI8860
aI8880
aI8900
aI8920
aI8940
aI8960
aI8980
aI9000
aI9020
aI9040
aI9060
aI9080
aI9100
aI9120
aI9140
aI9160
aI9180
aI9200
aI9220
aI9240
aI9260
aI9280
aI9300
aI9320
aI9340
aI9360
aI9380
aI9400
aI9420
aI9440
aI9460
aI9480
aI9500
aI9520
aI9540
aI9560
aI9580
aI9600
aI9620
aI9640
aI9660
aI9680
aI9700
aI9720
aI9740
aI9760
aI9780
aI9800
aI9820
aI9840
aI9860
aI9880
aI9900
aI9920
aI9940
aI9960
aI9980
aI10000
aI10020
aI10040
aI10060
aI10080
aI10100
aI10120
aI10140
aI10160
aI10180
aI10200
aI10220
aI10240
aI10260
aI10280
aI10300
aI10320
aI10340
aI10360
aI10380
aI10400
aI10420
aI10440
aI10460
aI10480
aI10500
aI10520
aI10540
aI10560
aI10580
aI10600
aI10620
aI10640
aI10660
aI10680
aI10700
aI10720
aI10740
aI10760
aI10780
aI10800
aI10820
aI10840
aI10860
aI10880
aI10900
aI10920
aI10940
aI10960
aI10980
aI11000
aI11020
aI11040
aI11060
aI11080
aI11100
aI11120
aI11140
aI11160
aI11180
aI11200
aI11220
aI11240
aI11260
aI11280
aI11300
aI11320
aI11340
aI11360
aI11380
aI11400
aI11420
aI11440
aI11460
aI11480
aI11500
aI11520
aI11540
aI11560
aI11580
aI11600
aI11620
aI11640
aI11660
aI11680
aI11700
aI11720
aI11740
aI11760
aI11780
aI11800
aI11820
aI11840
aI11860
aI11880
aI11900
aI11920
aI11940
aI11960
aI11980
aI12000
aI12020
aI12040
aI12060
aI12080
aI12100
aI12120
aI12140
aI12160
aI12180
aI12200
aI12220
aI12240
aI12260
aI12280
aI12300
aI12320
aI12340
aI12360
aI12380
aI12400
aI12420
aI12440
aI12460
aI12480
aI12500
aI12520
aI12540
aI12560
aI12580
aI12600
aI12620
aI12640
aI12660
aI12680
aI12700
aI12720
aI12740
aI12760
aI12780
aI12800
aI12820
aI12840
aI12860
aI12880
aI12900
aI12920
aI12940
aI12960
aI12980
aI13000
aI13020
aI13040
aI13060
aI13080
aI13100
aI13120
aI13140
aI13160
aI13180
aI13200
aI13220
aI13240
aI13260
aI13280
aI13300
aI13320
aI13340
aI13360
aI13380
aI13400
aI13420
aI13440
aI13460
aI13480
aI13500
aI13520
aI13540
aI13560
aI13580
aI13600
aI13620
aI13640
aI13660
aI13680
aI13700
aI13720
aI13740
aI13760
aI13780
aI13800
aI13820
aI13840
aI13860
aI13880
aI13900
aI13920
aI13940
aI13960
aI13980
aI14000
aI14020
aI14040
aI14060
aI14080
aI14100
aI14120
aI14140
aI14160
aI14180
aI14200
aI14220
aI14240
aI14260
aI14280
aI14300
aI14320
aI14340
aI14360
aI14380
aI14400
aI14420
aI14440
aI14460
aI14480
aI14500
aI14520
aI14540
aI14560
aI14580
aI14600
aI14620
aI14640
aI14660
aI14680
aI14700
aI14720
aI14740
aI14760
aI14780
aI14800
aI14820
aI14840
aI14860
aI14880
aI14900
aI14920
aI14940
aI14960
aI14980
aI15000
aI15020
aI15040
aI15060
aI15080
aI15100
aI15120
aI15140
aI15160
aI15180
aI15200
aI15220
aI15240
aI15260
aI15280
aI15300
aI15320
aI15340
aI15360
aI15380
aI15400
aI15420
aI15440
aI15460
aI15480
aI15500
aI15520
aI15540
aI15560
aI15580
aI15600
aI15620
aI15640
aI15660
aI15680
aI15700
aI15720
aI15740
aI15760
aI15780
aI15800
aI15820
aI15840
aI15860
aI15880
aI15900
aI15920
aI15940
aI15960
aI15980
aI16000
aI16020
aI16040
aI16060
aI16080
aI16100
aI16120
aI16140
aI16160
aI16180
aI16200
aI16220
aI16240
aI16260
aI16280
aI16300
aI16320
aI16340
aI16360
aI16380
aI16400
aI16420
aI16440
aI16460
aI16480
aI16500
aI16520
aI16540
aI16560
aI16580
aI16600
aI16620
aI16640
aI16660
aI16680
aI16700
aI16720
aI16740
aI16760
aI16780
aI16800
aI16820
aI16840
aI16860
aI16880
aI16900
aI16920
aI16940
aI16960
aI16980
aI17000
aI17020
aI17040
aI17060
aI17080
aI17100
aI17120
aI17140
aI17160
aI17180
aI17200
aI17220
aI17240
aI17260
aI17280
aI17300
aI17320
aI17340
aI17360
aI17380
aI17400
aI17420
aI17440
aI17460
aI17480
aI17500
aI17520
aI17540
aI17560
aI17580
aI17600
aI17620
aI17640
aI17660
aI17680
aI17700
aI17720
aI17740
aI17760
aI17780
aI17800
aI17820
aI17840
aI17860
aI17880
aI17900
aI17920
aI17940
aI17960
aI17980
aI18000
aI18020
aI18040
aI18060
aI18080
aI18100
aI18120
aI18140
aI18160
aI18180
aI18200
aI18220
aI18240
aI18260
aI18280
aI18300
aI18320
aI18340
aI18360
aI18380
aI18400
aI18420
aI18440
aI18460
aI18480
aI18500
aI18520
aI18540
aI18560
aI18580
aI18600
aI18620
aI18640
aI18660
aI18680
aI18700
aI18720
aI18740
aI18760
aI18780
aI18800
aI18820
aI18840
aI18860
aI18880
aI18900
aI18920
aI18940
aI18960
aI18980
aI19000
aI19020
aI19040
aI19060
aI19080
aI19100
aI19120
aI19140
aI19160
aI19180
aI19200
aI19220
aI19240
aI19260
aI19280
aI19300
aI19320
aI19340
aI19360
aI19380
aI19400
aI19420
aI19440
aI19460
aI19480
aI19500
aI19520
aI19540
aI19560
aI19580
aI19600
aI19620
aI19640
aI19660
aI19680
aI19700
aI19720
aI19740
aI19760
aI19780
aI19800
aI19820
aI19840
aI19860
aI19880
aI19900
aI19920
aI19940
aI19960
aI19980
aI20000
aI20020
aI20040
aI20060
aI20080
aI20100
aI20120
aI20140
aI20160
aI20180
aI20200
aI20220
aI20240
aa(lp2
F3.7846338748931885
aF3.7841696739196777
aF3.7834367752075195
aF3.783247232437134
aF3.782749891281128
aF3.7820792198181152
aF3.7821877002716064
aF3.7810792922973633
aF3.780708074569702
aF3.780093193054199
aF3.77911639213562
aF3.7789080142974854
aF3.779388666152954
aF3.777941942214966
aF3.7775609493255615
aF3.776393175125122
aF3.776449203491211
aF3.7756459712982178
aF3.77586030960083
aF3.7752482891082764
aF3.7741990089416504
aF3.7732625007629395
aF3.7739171981811523
aF3.771911144256592
aF3.7715232372283936
aF3.7711713314056396
aF3.770089626312256
aF3.7693941593170166
aF3.7695367336273193
aF3.7685279846191406
aF3.7678747177124023
aF3.766329526901245
aF3.7651166915893555
aF3.7658557891845703
aF3.7627289295196533
aF3.762887716293335
aF3.763777494430542
aF3.7631735801696777
aF3.7612099647521973
aF3.7594029903411865
aF3.7592945098876953
aF3.756136655807495
aF3.7535698413848877
aF3.7504379749298096
aF3.752042293548584
aF3.745490074157715
aF3.7477216720581055
aF3.7401394844055176
aF3.7404537200927734
aF3.7381513118743896
aF3.736532688140869
aF3.7305140495300293
aF3.725520372390747
aF3.7253689765930176
aF3.7213010787963867
aF3.7077136039733887
aF3.7149317264556885
aF3.7033116817474365
aF3.7022087574005127
aF3.6775755882263184
aF3.68414044380188
aF3.6722311973571777
aF3.6519975662231445
aF3.6333253383636475
aF3.6419484615325928
aF3.6402065753936768
aF3.6090989112854004
aF3.5947792530059814
aF3.559403896331787
aF3.5689315795898438
aF3.56890869140625
aF3.5380125045776367
aF3.482316255569458
aF3.4869229793548584
aF3.436262845993042
aF3.3876423835754395
aF3.339033603668213
aF3.364413261413574
aF3.3121278285980225
aF3.258654832839966
aF3.1854476928710938
aF3.1556124687194824
aF3.090064525604248
aF3.143615245819092
aF3.0956122875213623
aF2.976975202560425
aF2.9510200023651123
aF2.9130074977874756
aF2.7691121101379395
aF2.6970245838165283
aF2.691324472427368
aF2.5845541954040527
aF2.5141401290893555
aF2.374664545059204
aF2.361629009246826
aF2.276188611984253
aF2.2776756286621094
aF2.1860783100128174
aF2.066908359527588
aF2.010826826095581
aF1.9959248304367065
aF2.034740924835205
aF1.8844789266586304
aF1.829475998878479
aF1.9179950952529907
aF1.602325439453125
aF1.5937511920928955
aF1.7405723333358765
aF1.578063726425171
aF1.4653570652008057
aF1.467543125152588
aF1.4490556716918945
aF1.4378876686096191
aF1.3978477716445923
aF1.439549207687378
aF1.3149598836898804
aF1.391439437866211
aF1.2316449880599976
aF1.2704708576202393
aF1.2264518737792969
aF1.2024312019348145
aF1.2424176931381226
aF1.124218463897705
aF1.1940066814422607
aF1.1329370737075806
aF1.0687469244003296
aF1.090449571609497
aF1.0810680389404297
aF1.0619336366653442
aF1.0722072124481201
aF1.0626713037490845
aF1.0439858436584473
aF1.003666639328003
aF1.0587220191955566
aF0.9398606419563293
aF1.010014295578003
aF0.959510087966919
aF0.9320725202560425
aF0.9662491083145142
aF0.9378829598426819
aF0.8880867958068848
aF0.9125537872314453
aF0.9109371900558472
aF0.9496728777885437
aF0.9019381999969482
aF0.8485991358757019
aF0.8513968586921692
aF0.8135085701942444
aF0.912250816822052
aF0.751719057559967
aF0.835642397403717
aF0.8342734575271606
aF0.8085507750511169
aF0.8019306659698486
aF0.8321166038513184
aF0.8102436661720276
aF0.7648633718490601
aF0.792057991027832
aF0.7752270102500916
aF0.7946453094482422
aF0.8033310174942017
aF0.7348122000694275
aF0.754511296749115
aF0.7290696501731873
aF0.696443498134613
aF0.6657510995864868
aF0.723628580570221
aF0.7280572652816772
aF0.703694760799408
aF0.6721612811088562
aF0.6759904026985168
aF0.6963649392127991
aF0.6601436734199524
aF0.6325244903564453
aF0.7163713574409485
aF0.6865983009338379
aF0.6102915406227112
aF0.6519187688827515
aF0.6639552712440491
aF0.6082729697227478
aF0.6296192407608032
aF0.6160339117050171
aF0.6402812600135803
aF0.6342357397079468
aF0.6142737865447998
aF0.5828588008880615
aF0.6206192970275879
aF0.5779150724411011
aF0.620978593826294
aF0.5938316583633423
aF0.5658015012741089
aF0.5708539485931396
aF0.532101035118103
aF0.5591177344322205
aF0.5977263450622559
aF0.551738440990448
aF0.5929256081581116
aF0.5360780358314514
aF0.5303158164024353
aF0.5166944861412048
aF0.5329376459121704
aF0.5425490140914917
aF0.546280026435852
aF0.5270957350730896
aF0.5388360023498535
aF0.500507116317749
aF0.4980308413505554
aF0.5232987403869629
aF0.486452579498291
aF0.5290144085884094
aF0.5003116726875305
aF0.5282796621322632
aF0.44970372319221497
aF0.45094001293182373
aF0.4370581805706024
aF0.45587435364723206
aF0.4887622594833374
aF0.4377269744873047
aF0.43348559737205505
aF0.4378511607646942
aF0.4554000198841095
aF0.4770524799823761
aF0.39386653900146484
aF0.42755675315856934
aF0.4107294976711273
aF0.4038098156452179
aF0.39672988653182983
aF0.40563809871673584
aF0.37530505657196045
aF0.3721090257167816
aF0.3742660582065582
aF0.404241681098938
aF0.425404816865921
aF0.3737313747406006
aF0.3821563124656677
aF0.3869667053222656
aF0.38887086510658264
aF0.3556615114212036
aF0.41064688563346863
aF0.3507890999317169
aF0.3767830431461334
aF0.3716666102409363
aF0.3356398344039917
aF0.3820340931415558
aF0.384393572807312
aF0.3548439145088196
aF0.346454918384552
aF0.3716699481010437
aF0.3482264280319214
aF0.35463181138038635
aF0.3337690234184265
aF0.36675626039505005
aF0.3536240756511688
aF0.3365585207939148
aF0.3347303569316864
aF0.3367685079574585
aF0.308418333530426
aF0.3194965720176697
aF0.30945083498954773
aF0.2921038866043091
aF0.307302325963974
aF0.30434203147888184
aF0.29968518018722534
aF0.34338057041168213
aF0.35340043902397156
aF0.2664845585823059
aF0.2887064814567566
aF0.253915399312973
aF0.28872761130332947
aF0.27316638827323914
aF0.299329936504364
aF0.28846853971481323
aF0.27410322427749634
aF0.26134151220321655
aF0.2639812231063843
aF0.2436375468969345
aF0.27576944231987
aF0.2957775592803955
aF0.26973867416381836
aF0.23618443310260773
aF0.2657971680164337
aF0.25703561305999756
aF0.2677669823169708
aF0.21078918874263763
aF0.25143367052078247
aF0.2560986876487732
aF0.2340073436498642
aF0.2662980258464813
aF0.2226693332195282
aF0.21866485476493835
aF0.22917760908603668
aF0.19771915674209595
aF0.22673556208610535
aF0.2029585838317871
aF0.20605553686618805
aF0.22418799996376038
aF0.2215190827846527
aF0.22702185809612274
aF0.21126773953437805
aF0.2037668079137802
aF0.16737745702266693
aF0.20339512825012207
aF0.1737164407968521
aF0.1653515249490738
aF0.18772181868553162
aF0.1532275676727295
aF0.18670356273651123
aF0.1853100061416626
aF0.1918746680021286
aF0.18649044632911682
aF0.19615139067173004
aF0.17306309938430786
aF0.18007203936576843
aF0.18070997297763824
aF0.15128538012504578
aF0.1866011768579483
aF0.18117713928222656
aF0.19309569895267487
aF0.14900825917720795
aF0.15743345022201538
aF0.16103403270244598
aF0.194376602768898
aF0.15278977155685425
aF0.14315369725227356
aF0.15819884836673737
aF0.14778107404708862
aF0.15221792459487915
aF0.14862428605556488
aF0.15542243421077728
aF0.1271718591451645
aF0.15047168731689453
aF0.1954125463962555
aF0.15842361748218536
aF0.13324686884880066
aF0.14261947572231293
aF0.15312428772449493
aF0.1360553503036499
aF0.15888744592666626
aF0.1413682997226715
aF0.1479087471961975
aF0.13623294234275818
aF0.14707951247692108
aF0.12393534183502197
aF0.1299351155757904
aF0.12495218962430954
aF0.13513001799583435
aF0.12115468829870224
aF0.10347423702478409
aF0.12012127041816711
aF0.13646669685840607
aF0.10363920778036118
aF0.1011447161436081
aF0.11345641314983368
aF0.12987424433231354
aF0.11436279863119125
aF0.11761956661939621
aF0.10607822984457016
aF0.11416883766651154
aF0.1321287602186203
aF0.11785521358251572
aF0.09310401231050491
aF0.0994812399148941
aF0.11306940019130707
aF0.10067242383956909
aF0.10537529736757278
aF0.10701357573270798
aF0.10885024070739746
aF0.10418204963207245
aF0.09774905443191528
aF0.12836864590644836
aF0.0975145772099495
aF0.0945747047662735
aF0.10247534513473511
aF0.09121208637952805
aF0.08388175070285797
aF0.11759112030267715
aF0.08228746056556702
aF0.1057562306523323
aF0.09385371208190918
aF0.09633636474609375
aF0.09443558752536774
aF0.0923977866768837
aF0.0914493054151535
aF0.09491327404975891
aF0.08982577919960022
aF0.09278559684753418
aF0.08692026883363724
aF0.08970353752374649
aF0.08649193495512009
aF0.09982458502054214
aF0.08036094158887863
aF0.07073894143104553
aF0.08074357360601425
aF0.08984848856925964
aF0.09315238147974014
aF0.08342011272907257
aF0.07945890724658966
aF0.08135346323251724
aF0.09227363765239716
aF0.09020545333623886
aF0.08472168445587158
aF0.08603062480688095
aF0.08022598922252655
aF0.07151689380407333
aF0.0721609964966774
aF0.07596056908369064
aF0.07163553684949875
aF0.07652696967124939
aF0.07825933396816254
aF0.07678235322237015
aF0.07002058625221252
aF0.06811840087175369
aF0.0741950199007988
aF0.06329909712076187
aF0.06947831809520721
aF0.069842129945755
aF0.06707350164651871
aF0.07981976121664047
aF0.0734795331954956
aF0.07396231591701508
aF0.06471625715494156
aF0.06815814226865768
aF0.07625855505466461
aF0.05717678368091583
aF0.06497801095247269
aF0.06771409511566162
aF0.07536210119724274
aF0.06814264506101608
aF0.062291428446769714
aF0.06273254007101059
aF0.061401207000017166
aF0.0555068776011467
aF0.05836094543337822
aF0.080586738884449
aF0.05761450156569481
aF0.06592568010091782
aF0.053731124848127365
aF0.05459638312458992
aF0.06196727603673935
aF0.06328518688678741
aF0.06414675712585449
aF0.06100015342235565
aF0.06458262354135513
aF0.06476549059152603
aF0.0646018385887146
aF0.05515345558524132
aF0.06031835079193115
aF0.057824812829494476
aF0.06752481311559677
aF0.053285110741853714
aF0.06226049363613129
aF0.05344650149345398
aF0.061022281646728516
aF0.05629599839448929
aF0.05662883445620537
aF0.05122499167919159
aF0.055244043469429016
aF0.05062628537416458
aF0.0526094064116478
aF0.05475134402513504
aF0.05260126292705536
aF0.057846881449222565
aF0.054591938853263855
aF0.05889064073562622
aF0.0615684874355793
aF0.045734647661447525
aF0.054434604942798615
aF0.053422797471284866
aF0.054464541375637054
aF0.05209733545780182
aF0.051853012293577194
aF0.05234648659825325
aF0.045523595064878464
aF0.04398205131292343
aF0.052144359797239304
aF0.04734531417489052
aF0.05560177564620972
aF0.04681511968374252
aF0.041106436401605606
aF0.0518360361456871
aF0.045943692326545715
aF0.04997120797634125
aF0.043085526674985886
aF0.04479018971323967
aF0.05022350698709488
aF0.05456208810210228
aF0.0492015965282917
aF0.054675858467817307
aF0.04482245817780495
aF0.05189603567123413
aF0.04627978801727295
aF0.043483659625053406
aF0.0467408187687397
aF0.0407366082072258
aF0.04208015650510788
aF0.036974478513002396
aF0.04519757255911827
aF0.03841034322977066
aF0.04129094257950783
aF0.05055048316717148
aF0.04460366442799568
aF0.04884088411927223
aF0.044587764889001846
aF0.04323597624897957
aF0.041455578058958054
aF0.04885919764637947
aF0.04127541556954384
aF0.04291277006268501
aF0.03944101184606552
aF0.04137902706861496
aF0.03774341568350792
aF0.04195182025432587
aF0.03804522752761841
aF0.039125848561525345
aF0.03990688547492027
aF0.03866943344473839
aF0.0472656674683094
aF0.03740526735782623
aF0.036555469036102295
aF0.04104440659284592
aF0.04054463282227516
aF0.045500725507736206
aF0.043818749487400055
aF0.03233688697218895
aF0.03617612645030022
aF0.041844047605991364
aF0.036604978144168854
aF0.03787209466099739
aF0.04618846997618675
aF0.04117220640182495
aF0.03895130008459091
aF0.0353730171918869
aF0.035848136991262436
aF0.04205930605530739
aF0.03486323729157448
aF0.03810597583651543
aF0.03478279337286949
aF0.035008881241083145
aF0.03413078933954239
aF0.035792671144008636
aF0.03394179046154022
aF0.035727981477975845
aF0.03183959424495697
aF0.03736897557973862
aF0.034840524196624756
aF0.03163698688149452
aF0.037846844643354416
aF0.03203827515244484
aF0.03043793886899948
aF0.033619388937950134
aF0.03217875957489014
aF0.031239347532391548
aF0.030444493517279625
aF0.03218507021665573
aF0.032861627638339996
aF0.03155048191547394
aF0.035430360585451126
aF0.039143163710832596
aF0.038158491253852844
aF0.03546543046832085
aF0.03040195442736149
aF0.03604278713464737
aF0.03574354574084282
aF0.028349753469228745
aF0.027159929275512695
aF0.03241690993309021
aF0.03291226178407669
aF0.03246358036994934
aF0.026862068101763725
aF0.03464760258793831
aF0.031035447493195534
aF0.02668241783976555
aF0.031186368316411972
aF0.02941908873617649
aF0.03087041527032852
aF0.027358325198292732
aF0.030764775350689888
aF0.028742481023073196
aF0.03038877248764038
aF0.02721208520233631
aF0.031529176980257034
aF0.02735297568142414
aF0.03006877563893795
aF0.03686073049902916
aF0.0264130886644125
aF0.028958167880773544
aF0.026854611933231354
aF0.02872898429632187
aF0.031176377087831497
aF0.028811875730752945
aF0.02881743758916855
aF0.026515891775488853
aF0.02590489201247692
aF0.028607113286852837
aF0.02716231904923916
aF0.025604110211133957
aF0.027402913197875023
aF0.027138760313391685
aF0.02532472275197506
aF0.02514435350894928
aF0.02902531996369362
aF0.024492422118782997
aF0.025572750717401505
aF0.022174684330821037
aF0.025525785982608795
aF0.025839103385806084
aF0.02730671688914299
aF0.024470578879117966
aF0.028382621705532074
aF0.026903348043560982
aF0.023423707112669945
aF0.02474779449403286
aF0.024263404309749603
aF0.025299258530139923
aF0.025816021487116814
aF0.02423872798681259
aF0.023458782583475113
aF0.02403671108186245
aF0.023379793390631676
aF0.019254378974437714
aF0.0231913011521101
aF0.024082405492663383
aF0.025224968791007996
aF0.02495497837662697
aF0.025484759360551834
aF0.02260918729007244
aF0.0226135291159153
aF0.020013799890875816
aF0.023179933428764343
aF0.02336014434695244
aF0.024008069187402725
aF0.025208648294210434
aF0.023338764905929565
aF0.026950042694807053
aF0.02199847251176834
aF0.022578556090593338
aF0.022317834198474884
aF0.02600908651947975
aF0.022547584027051926
aF0.023006528615951538
aF0.021682869642972946
aF0.021139007061719894
aF0.020548151805996895
aF0.021048525348305702
aF0.019809424877166748
aF0.018480025231838226
aF0.02167748473584652
aF0.019959958270192146
aF0.022124623879790306
aF0.020890722051262856
aF0.0218055360019207
aF0.020978450775146484
aF0.020035605877637863
aF0.02247476577758789
aF0.019636208191514015
aF0.020346470177173615
aF0.02050129510462284
aF0.017326051369309425
aF0.018336394801735878
aF0.021680984646081924
aF0.018848538398742676
aF0.01991489715874195
aF0.019599035382270813
aF0.021139156073331833
aF0.020195066928863525
aF0.01911494880914688
aF0.01778274215757847
aF0.019482359290122986
aF0.016853971406817436
aF0.01756126806139946
aF0.017380673438310623
aF0.01928512379527092
aF0.015631742775440216
aF0.01624627783894539
aF0.01608874648809433
aF0.017574258148670197
aF0.016859721392393112
aF0.016233935952186584
aF0.018101058900356293
aF0.01671089604496956
aF0.01696925424039364
aF0.01712707243859768
aF0.014510334469377995
aF0.018737265840172768
aF0.013711480423808098
aF0.0184534452855587
aF0.017563458532094955
aF0.018724830821156502
aF0.014238613657653332
aF0.017178429290652275
aF0.016673041507601738
aF0.015671033412218094
aF0.012861158698797226
aF0.01585368439555168
aF0.014605080708861351
aF0.01565939001739025
aF0.017378760501742363
aF0.012068673968315125
aF0.016790229827165604
aF0.015110024251043797
aF0.015135555528104305
aF0.01620771735906601
aF0.013758672401309013
aF0.013302966952323914
aF0.013678468763828278
aF0.012468336150050163
aF0.013352333568036556
aF0.014407525770366192
aF0.013296357356011868
aF0.01467297226190567
aF0.012912089936435223
aF0.01342931017279625
aF0.015275374054908752
aF0.014119772240519524
aF0.014420788735151291
aF0.013299115933477879
aF0.013959036208689213
aF0.012683947570621967
aF0.013812683522701263
aF0.011934582144021988
aF0.012790246866643429
aF0.01385486964136362
aF0.014129512012004852
aF0.014684710651636124
aF0.011182581074535847
aF0.01294287946075201
aF0.013442100025713444
aF0.01146145910024643
aF0.009768707677721977
aF0.009238873608410358
aF0.01372954249382019
aF0.012322579510509968
aF0.011661522090435028
aF0.01313058566302061
aF0.013585272245109081
aF0.011750537902116776
aF0.012141224928200245
aF0.012546375393867493
aF0.013132203370332718
aF0.013517922721803188
aF0.01050062570720911
aF0.012148020789027214
aF0.011427110061049461
aF0.011987592093646526
aF0.010910886339843273
aF0.009168004617094994
aF0.011843451298773289
aF0.010181324556469917
aF0.010846703313291073
aF0.009967537596821785
aF0.011919963173568249
aF0.00973911676555872
aF0.011187122203409672
aF0.00992716383188963
aF0.010369009338319302
aF0.011082361452281475
aF0.00995158776640892
aF0.01144482847303152
aF0.011077317409217358
aF0.010989437811076641
aF0.010280342772603035
aF0.00922380667179823
aF0.009183008223772049
aF0.008708624169230461
aF0.00933140143752098
aF0.008909034542739391
aF0.009991249069571495
aF0.009313936345279217
aF0.008754951879382133
aF0.009838427416980267
aF0.008503559976816177
aF0.007653430104255676
aF0.007537412457168102
aF0.008494281210005283
aF0.009205952286720276
aF0.009850812144577503
aF0.00929795578122139
aF0.009855447337031364
aF0.007277906406670809
aF0.009162100963294506
aF0.007921476848423481
aF0.008086160756647587
aF0.00831096712499857
aF0.010596430860459805
aF0.007325952406972647
aF0.007906761951744556
aF0.008942904882133007
aF0.00785887986421585
aF0.007560033816844225
aF0.007953442633152008
aF0.009071598760783672
aF0.01011592335999012
aF0.006811374798417091
aF0.0093433428555727
aF0.00759679451584816
aF0.007123101036995649
aF0.005428579170256853
aF0.0064587886445224285
aF0.006467529106885195
aF0.007593653164803982
aF0.007437552325427532
aF0.007231883239001036
aF0.0051810177974402905
aF0.008134501054883003
aF0.0065002175979316235
aF0.007350368890911341
aF0.006530846003443003
aF0.0073939478024840355
aF0.007384858094155788
aF0.00672572199255228
aF0.008020577020943165
aF0.007936970330774784
aF0.007186812348663807
aF0.007111111655831337
aF0.00790216401219368
aF0.0050141275860369205
aF0.005945031065493822
aF0.004562124144285917
aF0.008054993115365505
aF0.007131798192858696
aF0.006909324321895838
aF0.006766381207853556
aF0.005786943715065718
aF0.00555755477398634
aF0.0049875951372087
aF0.006553999613970518
aF0.007773144636303186
aF0.007023935671895742
aF0.006086982320994139
aF0.005201172549277544
aF0.00615795748308301
aF0.006488508079200983
aF0.006699034944176674
aF0.006501839496195316
aF0.0048325094394385815
aF0.006102236453443766
aF0.0053389002569019794
aF0.004429758060723543
aF0.004307417664676905
aF0.005727759096771479
aF0.007471595425158739
aF0.004464008845388889
aF0.004212758969515562
aF0.005528565030544996
aF0.004737085662782192
aF0.003069052007049322
aF0.003503461368381977
aF0.004397372715175152
aF0.004031437914818525
aF0.0051956200040876865
aF0.004035936668515205
aF0.0044705551117658615
aF0.004577614367008209
aF0.00444445013999939
aF0.003974864259362221
aF0.004511192906647921
aF0.0035525497514754534
aF0.004800508730113506
aF0.0043746959418058395
aF0.004361736122518778
aF0.003452024422585964
aF0.00388911459594965
aF0.004184328485280275
aF0.004379410296678543
aF0.00451186066493392
aF0.0027754998300224543
aF0.005945004988461733
aF0.004568928852677345
aF0.0037383087910711765
aF0.0037931096740067005
aF0.003744032932445407
aF0.0036730091087520123
aF0.0028258245438337326
aF0.0031275043729692698
aF0.004340402316302061
aF0.005473069380968809
aF0.004865155089646578
aF0.0029251310043036938
aF0.0029668714851140976
aF0.003222891828045249
aF0.0035263069439679384
aF0.002802954986691475
aF0.004487052094191313
aF0.003180813742801547
aF0.0024178517051041126
aF0.0029361811466515064
aF0.0033510481007397175
aF0.003062635660171509
aF0.0029192643705755472
aF0.0029984270222485065
aF0.0037625827826559544
aF0.00376744382083416
aF0.0031931709963828325
aF0.002446644240990281
aF0.0032725329510867596
aF0.003371704602614045
aF0.003340225899592042
aF0.0028747343458235264
aF0.002183702541515231
aF0.003075014567002654
aF0.0030929152853786945
aF0.002623268635943532
aF0.0022717106621712446
aF0.0019690163899213076
aF0.002324688946828246
aF0.002335223136469722
aF0.0023332368582487106
aF0.0033343301620334387
aF0.004025038797408342
aF0.0019865641370415688
aF0.0022055194713175297
aF0.00271994573995471
aF0.002926001325249672
aF0.0027949181385338306
aF0.0030140916351228952
aF0.0033324325922876596
aF0.0031202828977257013
aF0.00197488721460104
aF0.0025021410547196865
aF0.0022529091220349073
aF0.0018315555062144995
aF0.0022367481142282486
aF0.0019565976690500975
aF0.0017764621879905462
aF0.002009061863645911
aF0.001481269602663815
aF0.0022077595349401236
aF0.0018170182593166828
aF0.002060845959931612
aF0.001977138454094529
aF0.0023444904945790768
aF0.00205528037622571
aF0.0016682473942637444
aF0.0020755731966346502
aF0.0018754511838778853
aF0.0025939051993191242
aF0.0013689617626369
aF0.001967505319043994
aF0.0018088864162564278
aF0.0022450166288763285
aF0.0022867987863719463
aF0.00203305808827281
aF0.0018057702109217644
aF0.0014704028144478798
aF0.0010881591588258743
aF0.0014605034375563264
aF0.0019195169443264604
aF0.0014371793949976563
aF0.0011936035007238388
aF0.001527438755147159
aF0.002213267143815756
aF0.002143320394679904
aF0.0011539842234924436
aF0.0013320454163476825
aF0.0017896745121106505
aF0.0015630833804607391
aF0.0013132132589817047
aF0.0018851672066375613
aF0.0017889284063130617
aF0.0016642475966364145
aF0.002067203400656581
aF0.00146318762563169
aF0.0010479610646143556
aF0.0013811513781547546
aF0.0015815033111721277
aF0.0017446689307689667
aF0.0011988133192062378
aF0.0009277523495256901
aF0.0012047220952808857
aF0.000989949214272201
aF0.001733938348479569
aF0.0015235352329909801
aF0.0019586069975048304
aF0.001470957649871707
aF0.0014047754229977727
aF0.0008404601830989122
aF0.0012532318942248821
aF0.0010378313018009067
aF0.0010656930971890688
aF0.0013299476122483611
aF0.0017546099843457341
aF0.001301844255067408
aF0.0007796459249220788
aF0.001032558036968112
aF0.0010289273923262954
aF0.0012989265378564596
aF0.0016240942059084773
aF0.0005807672860100865
aF0.0010043992660939693
aF0.001490456867031753
aF0.0011444279225543141
aF0.0009947418002411723
aF0.0008200882002711296
aF0.0009522107429802418
aF0.0017200089059770107
aF0.0008663737680763006
aF0.0015637973556295037
aF0.000932255235966295
aF0.001254693022929132
aF0.0011988874757662416
aF0.0006390690105035901
aF0.0008837812929414213
aF0.00078733911504969
aF0.0009943329496309161
aF0.0007774985861033201
aF0.0007209967589005828
aF0.000902391504496336
aF0.00107151351403445
aF0.0009023232269100845
aF0.0010654188226908445
aF0.0007311974186450243
aF0.0009516076534055173
aa.