(lp0
(lp1
I20
aI40
aI60
aI80
aI100
aI120
aI140
aI160
aI180
aI200
aI220
aI240
aI260
aI280
aI300
aI320
aI340
aI360
aI380
aI400
aI420
aI440
aI460
aI480
aI500
aI520
aI540
aI560
aI580
aI600
aI620
aI640
aI660
aI680
aI700
aI720
aI740
aI760
aI780
aI800
aI820
aI840
aI860
aI880
aI900
aI920
aI940
aI960
aI980
aI1000
aI1020
aI1040
aI1060
aI1080
aI1100
aI1120
aI1140
aI1160
aI1180
aI1200
aI1220
aI1240
aI1260
aI1280
aI1300
aI1320
aI1340
aI1360
aI1380
aI1400
aI1420
aI1440
aI1460
aI1480
aI1500
aI1520
aI1540
aI1560
aI1580
aI1600
aI1620
aI1640
aI1660
aI1680
aI1700
aI1720
aI1740
aI1760
aI1780
aI1800
aI1820
aI1840
aI1860
aI1880
aI1900
aI1920
aI1940
aI1960
aI1980
aI2000
aI2020
aI2040
aI2060
aI2080
aI2100
aI2120
aI2140
aI2160
aI2180
aI2200
aI2220
aI2240
aI2260
aI2280
aI2300
aI2320
aI2340
aI2360
aI2380
aI2400
aI2420
aI2440
aI2460
aI2480
aI2500
aI2520
aI2540
aI2560
aI2580
aI2600
aI2620
aI2640
aI2660
aI2680
aI2700
aI2720
aI2740
aI2760
aI2780
aI2800
aI2820
aI2840
aI2860
aI2880
aI2900
aI2920
aI2940
aI2960
aI2980
aI3000
aI3020
aI3040
aI3060
aI3080
aI3100
aI3120
aI3140
aI3160
aI3180
aI3200
aI3220
aI3240
aI3260
aI3280
aI3300
aI3320
aI3340
aI3360
aI3380
aI3400
aI3420
aI3440
aI3460
aI3480
aI3500
aI3520
aI3540
aI3560
aI3580
aI3600
aI3620
aI3640
aI3660
aI3680
aI3700
aI3720
aI3740
aI3760
aI3780
aI3800
aI3820
aI3840
aI3860
aI3880
aI3900
aI3920
aI3940
aI3960
aI3980
aI4000
aI4020
aI4040
aI4060
aI4080
aI4100
aI4120
aI4140
aI4160
aI4180
aI4200
aI4220
aI4240
aI4260
aI4280
aI4300
aI4320
aI4340
aI4360
aI4380
aI4400
aI4420
aI4440
aI4460
aI4480
aI4500
aI4520
aI4540
aI4560
aI4580
aI4600
aI4620
aI4640
aI4660
aI4680
aI4700
aI4720
aI4740
aI4760
aI4780
aI4800
aI4820
aI4840
aI4860
aI4880
aI4900
aI4920
aI4940
aI4960
aI4980
aI5000
aI5020
aI5040
aI5060
aI5080
aI5100
aa(lp2
F329.6846008300781
aF256.6266784667969
aF325.7023010253906
aF260.4495849609375
aF251.32879638671875
aF240.52442932128906
aF252.87681579589844
aF202.91348266601562
aF229.0695343017578
aF252.6832733154297
aF211.2151336669922
aF216.37147521972656
aF227.84913635253906
aF181.0736846923828
aF192.25527954101562
aF164.9725799560547
aF185.4140625
aF199.17430114746094
aF224.30587768554688
aF202.13238525390625
aF196.57205200195312
aF205.38595581054688
aF185.70706176757812
aF229.30747985839844
aF199.50071716308594
aF183.08119201660156
aF191.90867614746094
aF145.13336181640625
aF146.47987365722656
aF200.4081573486328
aF185.0674285888672
aF153.259765625
aF212.70738220214844
aF142.4530029296875
aF115.28983306884766
aF142.6492462158203
aF209.65484619140625
aF224.70556640625
aF197.6217803955078
aF152.93685913085938
aF183.0801544189453
aF214.69937133789062
aF147.68092346191406
aF153.1006622314453
aF164.33642578125
aF161.4937286376953
aF156.165283203125
aF195.19052124023438
aF126.32318115234375
aF202.79464721679688
aF206.8439178466797
aF128.67147827148438
aF205.9379425048828
aF122.18634796142578
aF159.2272491455078
aF164.3880615234375
aF202.5631103515625
aF171.69032287597656
aF143.39918518066406
aF138.9215545654297
aF210.61981201171875
aF127.61123657226562
aF127.62669372558594
aF190.6208038330078
aF199.20138549804688
aF151.6381378173828
aF142.68380737304688
aF165.52951049804688
aF127.16260528564453
aF112.31714630126953
aF103.47383880615234
aF137.31304931640625
aF153.90892028808594
aF139.3391571044922
aF169.26943969726562
aF130.66551208496094
aF188.448974609375
aF168.171630859375
aF179.87538146972656
aF112.9412841796875
aF121.29647827148438
aF157.33950805664062
aF152.5785675048828
aF138.1495361328125
aF163.6716766357422
aF131.64305114746094
aF141.20066833496094
aF186.10076904296875
aF189.0727996826172
aF104.89739227294922
aF140.68115234375
aF146.754150390625
aF184.49554443359375
aF184.3714599609375
aF130.19178771972656
aF104.05061340332031
aF164.8426971435547
aF128.8040771484375
aF153.07192993164062
aF141.7753448486328
aF136.64208984375
aF178.6397705078125
aF165.29566955566406
aF79.32442474365234
aF177.00100708007812
aF154.18389892578125
aF142.11135864257812
aF164.11712646484375
aF148.6232452392578
aF137.76153564453125
aF120.97699737548828
aF155.70062255859375
aF180.7322540283203
aF138.12464904785156
aF142.65255737304688
aF164.091064453125
aF143.56288146972656
aF151.11058044433594
aF134.97509765625
aF189.62628173828125
aF147.6271209716797
aF123.51313018798828
aF131.0667724609375
aF147.76661682128906
aF128.23495483398438
aF133.49359130859375
aF188.58798217773438
aF115.87474060058594
aF166.21200561523438
aF124.7076416015625
aF218.27247619628906
aF115.32184600830078
aF141.3807830810547
aF149.34967041015625
aF167.1370086669922
aF128.4441375732422
aF173.29177856445312
aF120.05876159667969
aF190.8995819091797
aF155.86192321777344
aF127.00080108642578
aF173.1443634033203
aF189.3866729736328
aF158.16238403320312
aF125.59304809570312
aF146.70077514648438
aF133.3487548828125
aF160.4178466796875
aF131.10581970214844
aF191.21295166015625
aF147.27125549316406
aF105.69456481933594
aF188.26881408691406
aF192.3232879638672
aF194.0572052001953
aF161.04673767089844
aF120.14356231689453
aF123.90756225585938
aF188.78466796875
aF137.98992919921875
aF155.62344360351562
aF97.80347442626953
aF134.981201171875
aF176.35244750976562
aF155.59124755859375
aF120.32881927490234
aF143.06683349609375
aF124.7165298461914
aF116.52881622314453
aF76.358154296875
aF148.51885986328125
aF138.3111572265625
aF155.28662109375
aF146.0836181640625
aF138.4766845703125
aF158.80502319335938
aF122.98371887207031
aF161.0024871826172
aF131.67535400390625
aF140.62094116210938
aF108.71078491210938
aF126.57362365722656
aF119.86538696289062
aF163.67123413085938
aF98.67776489257812
aF201.20147705078125
aF157.4297332763672
aF121.70673370361328
aF107.58912658691406
aF98.23701477050781
aF156.81915283203125
aF154.908203125
aF135.6252899169922
aF110.45549774169922
aF129.34605407714844
aF129.75267028808594
aF141.50384521484375
aF104.05380249023438
aF104.00410461425781
aF122.32811737060547
aF121.33930969238281
aF108.2564697265625
aF133.9773406982422
aF124.07205200195312
aF104.19056701660156
aF113.09878540039062
aF129.81851196289062
aF195.58055114746094
aF109.38333892822266
aF108.67634582519531
aF149.89419555664062
aF90.24618530273438
aF117.37664031982422
aF95.50616455078125
aF181.50564575195312
aF155.07423400878906
aF91.21097564697266
aF118.44862365722656
aF158.55215454101562
aF121.10333251953125
aF162.2510986328125
aF132.13552856445312
aF98.10172271728516
aF78.39134216308594
aF157.64903259277344
aF142.22100830078125
aF166.2942657470703
aF132.9145965576172
aF143.97315979003906
aF90.15311431884766
aF108.9127197265625
aF120.27462005615234
aF136.35572814941406
aF133.92819213867188
aF160.4372100830078
aF136.95974731445312
aF84.98616790771484
aF124.06558227539062
aF103.03973388671875
aF97.62126159667969
aF107.17876434326172
aF149.2503662109375
aF93.7114486694336
aF129.12403869628906
aF135.39620971679688
aF124.28433990478516
aF98.345947265625
aF117.23295593261719
aF115.41155242919922
aF161.82159423828125
aF116.16919708251953
aF114.74480438232422
aF158.89724731445312
aF93.61933135986328
aF99.97454071044922
aa.