(lp0
(lp1
I20
aI40
aI60
aI80
aI100
aI120
aI140
aI160
aI180
aI200
aI220
aI240
aI260
aI280
aI300
aI320
aI340
aI360
aI380
aI400
aI420
aI440
aI460
aI480
aI500
aI520
aI540
aI560
aI580
aI600
aI620
aI640
aI660
aI680
aI700
aI720
aI740
aI760
aI780
aI800
aI820
aI840
aI860
aI880
aI900
aI920
aI940
aI960
aI980
aI1000
aI1020
aI1040
aI1060
aI1080
aI1100
aI1120
aI1140
aI1160
aI1180
aI1200
aI1220
aI1240
aI1260
aI1280
aI1300
aI1320
aI1340
aI1360
aI1380
aI1400
aI1420
aI1440
aI1460
aI1480
aI1500
aI1520
aI1540
aI1560
aI1580
aI1600
aI1620
aI1640
aI1660
aI1680
aI1700
aI1720
aI1740
aI1760
aI1780
aI1800
aI1820
aI1840
aI1860
aI1880
aI1900
aI1920
aI1940
aI1960
aI1980
aI2000
aI2020
aI2040
aI2060
aI2080
aI2100
aI2120
aI2140
aI2160
aI2180
aI2200
aI2220
aI2240
aI2260
aI2280
aI2300
aI2320
aI2340
aI2360
aI2380
aI2400
aI2420
aI2440
aI2460
aI2480
aI2500
aI2520
aI2540
aI2560
aI2580
aI2600
aI2620
aI2640
aI2660
aI2680
aI2700
aI2720
aI2740
aI2760
aI2780
aI2800
aI2820
aI2840
aI2860
aI2880
aI2900
aI2920
aI2940
aI2960
aI2980
aI3000
aI3020
aI3040
aI3060
aI3080
aI3100
aI3120
aI3140
aI3160
aI3180
aI3200
aI3220
aI3240
aI3260
aI3280
aI3300
aI3320
aI3340
aI3360
aI3380
aI3400
aI3420
aI3440
aI3460
aI3480
aI3500
aI3520
aI3540
aI3560
aI3580
aI3600
aI3620
aI3640
aI3660
aI3680
aI3700
aI3720
aI3740
aI3760
aI3780
aI3800
aI3820
aI3840
aI3860
aI3880
aI3900
aI3920
aI3940
aI3960
aI3980
aI4000
aI4020
aI4040
aI4060
aI4080
aI4100
aI4120
aI4140
aI4160
aI4180
aI4200
aI4220
aI4240
aI4260
aI4280
aI4300
aI4320
aI4340
aI4360
aI4380
aI4400
aI4420
aI4440
aI4460
aI4480
aI4500
aI4520
aI4540
aI4560
aI4580
aI4600
aI4620
aI4640
aI4660
aI4680
aI4700
aI4720
aI4740
aI4760
aI4780
aI4800
aI4820
aI4840
aI4860
aI4880
aI4900
aI4920
aI4940
aI4960
aI4980
aI5000
aI5020
aI5040
aI5060
aI5080
aI5100
aI5120
aI5140
aI5160
aI5180
aI5200
aI5220
aI5240
aI5260
aI5280
aI5300
aI5320
aI5340
aI5360
aI5380
aI5400
aI5420
aI5440
aI5460
aI5480
aI5500
aI5520
aI5540
aI5560
aI5580
aI5600
aI5620
aI5640
aI5660
aI5680
aI5700
aI5720
aI5740
aI5760
aI5780
aI5800
aI5820
aI5840
aI5860
aI5880
aI5900
aI5920
aI5940
aI5960
aI5980
aI6000
aI6020
aI6040
aI6060
aI6080
aI6100
aI6120
aI6140
aI6160
aI6180
aI6200
aI6220
aI6240
aI6260
aI6280
aI6300
aI6320
aI6340
aI6360
aI6380
aI6400
aI6420
aI6440
aI6460
aI6480
aI6500
aI6520
aI6540
aI6560
aI6580
aI6600
aI6620
aI6640
aI6660
aI6680
aI6700
aI6720
aI6740
aI6760
aI6780
aI6800
aI6820
aI6840
aI6860
aI6880
aI6900
aI6920
aI6940
aI6960
aI6980
aI7000
aI7020
aI7040
aI7060
aI7080
aI7100
aI7120
aI7140
aI7160
aI7180
aI7200
aI7220
aI7240
aI7260
aI7280
aI7300
aI7320
aI7340
aI7360
aI7380
aI7400
aI7420
aI7440
aI7460
aI7480
aI7500
aI7520
aI7540
aI7560
aI7580
aI7600
aI7620
aI7640
aI7660
aI7680
aI7700
aI7720
aI7740
aI7760
aI7780
aI7800
aI7820
aI7840
aI7860
aI7880
aI7900
aI7920
aI7940
aI7960
aI7980
aI8000
aI8020
aI8040
aI8060
aI8080
aI8100
aI8120
aI8140
aI8160
aI8180
aI8200
aI8220
aI8240
aI8260
aI8280
aI8300
aI8320
aI8340
aI8360
aI8380
aI8400
aI8420
aI8440
aI8460
aI8480
aI8500
aI8520
aI8540
aI8560
aI8580
aI8600
aI8620
aI8640
aI8660
aI8680
aI8700
aI8720
aI8740
aI8760
aI8780
aI8800
aI8820
aI8840
aI8860
aI8880
aI8900
aI8920
aI8940
aI8960
aI8980
aI9000
aI9020
aI9040
aI9060
aI9080
aI9100
aI9120
aI9140
aI9160
aI9180
aI9200
aI9220
aI9240
aI9260
aI9280
aI9300
aI9320
aI9340
aI9360
aI9380
aI9400
aI9420
aI9440
aI9460
aI9480
aI9500
aI9520
aI9540
aI9560
aI9580
aI9600
aI9620
aI9640
aI9660
aI9680
aI9700
aI9720
aI9740
aI9760
aI9780
aI9800
aI9820
aI9840
aI9860
aI9880
aI9900
aI9920
aI9940
aI9960
aI9980
aI10000
aI10020
aI10040
aI10060
aI10080
aI10100
aI10120
aI10140
aI10160
aI10180
aI10200
aI10220
aI10240
aI10260
aI10280
aI10300
aI10320
aI10340
aI10360
aI10380
aI10400
aI10420
aI10440
aI10460
aI10480
aI10500
aI10520
aI10540
aI10560
aI10580
aI10600
aI10620
aI10640
aI10660
aI10680
aI10700
aI10720
aI10740
aI10760
aI10780
aI10800
aI10820
aI10840
aI10860
aI10880
aI10900
aI10920
aI10940
aI10960
aI10980
aI11000
aI11020
aI11040
aI11060
aI11080
aI11100
aI11120
aI11140
aI11160
aI11180
aI11200
aI11220
aI11240
aI11260
aI11280
aI11300
aI11320
aI11340
aI11360
aI11380
aI11400
aI11420
aI11440
aI11460
aI11480
aI11500
aI11520
aI11540
aI11560
aI11580
aI11600
aI11620
aI11640
aI11660
aI11680
aI11700
aI11720
aI11740
aI11760
aI11780
aI11800
aI11820
aI11840
aI11860
aI11880
aI11900
aI11920
aI11940
aI11960
aI11980
aI12000
aI12020
aI12040
aI12060
aI12080
aI12100
aI12120
aI12140
aI12160
aI12180
aI12200
aI12220
aI12240
aI12260
aI12280
aI12300
aI12320
aI12340
aI12360
aI12380
aI12400
aI12420
aI12440
aI12460
aI12480
aI12500
aI12520
aI12540
aI12560
aI12580
aI12600
aI12620
aI12640
aI12660
aI12680
aI12700
aI12720
aI12740
aI12760
aI12780
aI12800
aI12820
aI12840
aI12860
aI12880
aI12900
aI12920
aI12940
aI12960
aI12980
aI13000
aI13020
aI13040
aI13060
aI13080
aI13100
aI13120
aI13140
aI13160
aI13180
aI13200
aI13220
aI13240
aI13260
aI13280
aI13300
aI13320
aI13340
aI13360
aI13380
aI13400
aI13420
aI13440
aI13460
aI13480
aI13500
aI13520
aI13540
aI13560
aI13580
aI13600
aI13620
aI13640
aI13660
aI13680
aI13700
aI13720
aI13740
aI13760
aI13780
aI13800
aI13820
aI13840
aI13860
aI13880
aI13900
aI13920
aI13940
aI13960
aI13980
aI14000
aI14020
aI14040
aI14060
aI14080
aI14100
aI14120
aI14140
aI14160
aI14180
aI14200
aI14220
aI14240
aI14260
aI14280
aI14300
aI14320
aI14340
aI14360
aI14380
aI14400
aI14420
aI14440
aI14460
aI14480
aI14500
aI14520
aI14540
aI14560
aI14580
aI14600
aI14620
aI14640
aI14660
aI14680
aI14700
aI14720
aI14740
aI14760
aI14780
aI14800
aI14820
aI14840
aI14860
aI14880
aI14900
aI14920
aI14940
aI14960
aI14980
aI15000
aI15020
aI15040
aI15060
aI15080
aI15100
aI15120
aI15140
aI15160
aI15180
aI15200
aI15220
aI15240
aI15260
aI15280
aI15300
aI15320
aI15340
aI15360
aI15380
aI15400
aI15420
aI15440
aI15460
aI15480
aI15500
aI15520
aI15540
aI15560
aI15580
aI15600
aI15620
aI15640
aI15660
aI15680
aI15700
aI15720
aI15740
aI15760
aI15780
aI15800
aI15820
aI15840
aI15860
aI15880
aI15900
aI15920
aI15940
aI15960
aI15980
aI16000
aI16020
aI16040
aI16060
aI16080
aI16100
aI16120
aI16140
aI16160
aI16180
aI16200
aI16220
aI16240
aI16260
aI16280
aI16300
aI16320
aI16340
aI16360
aI16380
aI16400
aI16420
aI16440
aI16460
aI16480
aI16500
aI16520
aI16540
aI16560
aI16580
aI16600
aI16620
aI16640
aI16660
aI16680
aI16700
aI16720
aI16740
aI16760
aI16780
aI16800
aI16820
aI16840
aI16860
aI16880
aI16900
aI16920
aI16940
aI16960
aI16980
aI17000
aI17020
aI17040
aI17060
aI17080
aI17100
aI17120
aI17140
aI17160
aI17180
aI17200
aI17220
aI17240
aI17260
aI17280
aI17300
aI17320
aI17340
aI17360
aI17380
aI17400
aI17420
aI17440
aI17460
aI17480
aI17500
aI17520
aI17540
aI17560
aI17580
aI17600
aI17620
aI17640
aI17660
aI17680
aI17700
aI17720
aI17740
aI17760
aI17780
aI17800
aI17820
aI17840
aI17860
aI17880
aI17900
aI17920
aI17940
aI17960
aI17980
aI18000
aI18020
aI18040
aI18060
aI18080
aI18100
aI18120
aI18140
aI18160
aI18180
aI18200
aI18220
aI18240
aI18260
aI18280
aI18300
aI18320
aI18340
aI18360
aI18380
aI18400
aI18420
aI18440
aI18460
aI18480
aI18500
aI18520
aI18540
aI18560
aI18580
aI18600
aI18620
aI18640
aI18660
aI18680
aI18700
aI18720
aI18740
aI18760
aI18780
aI18800
aI18820
aI18840
aI18860
aI18880
aI18900
aI18920
aI18940
aI18960
aI18980
aI19000
aI19020
aI19040
aI19060
aI19080
aI19100
aI19120
aI19140
aI19160
aI19180
aI19200
aI19220
aI19240
aI19260
aI19280
aI19300
aI19320
aI19340
aI19360
aI19380
aI19400
aI19420
aI19440
aI19460
aI19480
aI19500
aI19520
aI19540
aI19560
aI19580
aI19600
aI19620
aI19640
aI19660
aI19680
aI19700
aI19720
aI19740
aI19760
aI19780
aI19800
aI19820
aI19840
aI19860
aI19880
aI19900
aI19920
aI19940
aI19960
aI19980
aI20000
aI20020
aI20040
aI20060
aI20080
aI20100
aI20120
aI20140
aI20160
aI20180
aI20200
aI20220
aI20240
aa(lp2
F597.4884033203125
aF643.1727294921875
aF717.34814453125
aF631.206298828125
aF712.9560546875
aF610.0077514648438
aF579.84228515625
aF556.2840576171875
aF586.6060791015625
aF698.70166015625
aF698.8416137695312
aF582.59716796875
aF814.8395385742188
aF490.4944763183594
aF673.6790771484375
aF680.5468139648438
aF789.2245483398438
aF585.5872192382812
aF559.990234375
aF603.3541259765625
aF630.42041015625
aF711.5146484375
aF570.6373901367188
aF629.6734008789062
aF630.1384887695312
aF712.7286987304688
aF572.5186157226562
aF719.8961181640625
aF583.1279296875
aF536.1375732421875
aF734.0120849609375
aF709.1118774414062
aF559.9533081054688
aF672.3743896484375
aF620.4740600585938
aF663.91162109375
aF600.515869140625
aF696.6747436523438
aF649.1573486328125
aF519.1165161132812
aF636.6669921875
aF628.2391357421875
aF608.435302734375
aF596.9637451171875
aF597.5770263671875
aF702.303466796875
aF611.2352905273438
aF767.918701171875
aF615.8313598632812
aF646.7386474609375
aF669.05029296875
aF666.134521484375
aF786.9004516601562
aF607.3285522460938
aF700.3440551757812
aF547.24951171875
aF632.9090576171875
aF585.809326171875
aF688.5822143554688
aF674.787109375
aF530.5045166015625
aF665.84619140625
aF635.6729736328125
aF694.5160522460938
aF659.4884643554688
aF591.006591796875
aF648.8712768554688
aF635.1994018554688
aF620.7686767578125
aF504.4805908203125
aF611.089599609375
aF664.0358276367188
aF581.4110107421875
aF612.7169189453125
aF568.98046875
aF615.0377807617188
aF564.034423828125
aF669.0884399414062
aF518.1182861328125
aF527.2459106445312
aF634.6359252929688
aF589.3359375
aF543.1390991210938
aF543.435791015625
aF611.0120239257812
aF490.40423583984375
aF628.248046875
aF524.4296264648438
aF722.0772094726562
aF555.9764404296875
aF619.1925048828125
aF572.14453125
aF524.0042114257812
aF533.4750366210938
aF533.3153076171875
aF501.24896240234375
aF576.3132934570312
aF564.147216796875
aF584.1343994140625
aF564.9575805664062
aF618.7406616210938
aF710.9039306640625
aF734.959228515625
aF606.7027587890625
aF581.7570190429688
aF583.0408325195312
aF611.94189453125
aF621.34619140625
aF602.0228881835938
aF584.4954223632812
aF642.9043579101562
aF598.2930908203125
aF609.2389526367188
aF489.2195739746094
aF619.2178955078125
aF487.20721435546875
aF565.673095703125
aF567.5231323242188
aF573.7280883789062
aF612.5513305664062
aF616.71484375
aF466.96649169921875
aF584.9561157226562
aF588.4707641601562
aF549.1197509765625
aF587.5302124023438
aF637.2510986328125
aF672.3607177734375
aF614.6162719726562
aF657.721435546875
aF653.777099609375
aF602.4366455078125
aF683.1947631835938
aF653.0313110351562
aF590.794189453125
aF657.5255737304688
aF731.2020874023438
aF531.7442016601562
aF484.6515197753906
aF525.2380981445312
aF490.4829406738281
aF517.6986694335938
aF620.544921875
aF597.2117309570312
aF479.8782043457031
aF624.80419921875
aF659.643310546875
aF574.32763671875
aF646.1240844726562
aF593.2182006835938
aF577.4855346679688
aF554.1889038085938
aF546.390380859375
aF545.2313232421875
aF563.0667114257812
aF690.666015625
aF628.6404418945312
aF524.251220703125
aF686.68359375
aF596.632568359375
aF643.912109375
aF497.0612487792969
aF615.1358032226562
aF596.0482788085938
aF553.554443359375
aF610.2124633789062
aF630.4192504882812
aF639.481201171875
aF684.8814086914062
aF666.3193969726562
aF656.5013427734375
aF576.1876220703125
aF534.6930541992188
aF578.3272705078125
aF609.2078857421875
aF606.133056640625
aF571.6393432617188
aF553.124267578125
aF553.8369750976562
aF579.268798828125
aF428.8253479003906
aF550.1246948242188
aF659.4796752929688
aF604.1578369140625
aF618.4944458007812
aF580.8974609375
aF576.3074340820312
aF548.6212158203125
aF431.6396484375
aF550.018310546875
aF566.1203002929688
aF592.6880493164062
aF615.3232421875
aF465.59136962890625
aF629.1805419921875
aF665.0250244140625
aF567.587890625
aF571.1773681640625
aF507.78802490234375
aF680.8662109375
aF645.9759521484375
aF606.6727905273438
aF607.641357421875
aF555.322509765625
aF660.8242797851562
aF688.2874145507812
aF622.8251953125
aF503.0572509765625
aF724.1179809570312
aF550.9445190429688
aF566.0659790039062
aF524.85888671875
aF540.1338500976562
aF641.0344848632812
aF678.9578857421875
aF587.1141967773438
aF560.6455688476562
aF714.196533203125
aF491.314453125
aF702.568359375
aF570.3253173828125
aF539.3241577148438
aF581.3623046875
aF522.0841064453125
aF709.2417602539062
aF499.72491455078125
aF590.5269775390625
aF795.6617431640625
aF628.59375
aF626.9776611328125
aF660.5452270507812
aF569.728759765625
aF561.64111328125
aF518.8897094726562
aF742.6895751953125
aF610.1221313476562
aF572.9302978515625
aF521.273193359375
aF493.9409484863281
aF575.6682739257812
aF560.048095703125
aF455.2949523925781
aF546.3072509765625
aF553.5706787109375
aF550.9553833007812
aF645.931884765625
aF713.2199096679688
aF567.2391967773438
aF565.8184204101562
aF656.7897338867188
aF540.2635498046875
aF712.7955932617188
aF605.53857421875
aF526.0560913085938
aF609.0012817382812
aF602.2266235351562
aF502.38787841796875
aF645.8079223632812
aF621.821533203125
aF599.3326416015625
aF670.060791015625
aF610.4755859375
aF555.7747192382812
aF726.0338134765625
aF498.344970703125
aF645.1976318359375
aF673.771728515625
aF482.58709716796875
aF470.5655517578125
aF686.4073486328125
aF630.365966796875
aF510.7187194824219
aF613.843505859375
aF729.7586669921875
aF542.7957763671875
aF627.5380859375
aF537.7052612304688
aF588.38671875
aF526.1604614257812
aF673.5680541992188
aF471.9188232421875
aF575.6036376953125
aF591.3121948242188
aF641.2453002929688
aF629.8965454101562
aF473.62298583984375
aF694.6506958007812
aF665.248779296875
aF578.4527587890625
aF525.8152465820312
aF612.5521240234375
aF487.9037170410156
aF601.15283203125
aF652.0961303710938
aF539.9993896484375
aF698.5845947265625
aF591.3439331054688
aF641.2184448242188
aF501.2214050292969
aF576.7282104492188
aF597.98046875
aF693.5235595703125
aF657.555419921875
aF471.40142822265625
aF626.0940551757812
aF488.3126525878906
aF679.6961059570312
aF570.9588623046875
aF630.3115234375
aF536.7991943359375
aF563.16259765625
aF453.4332580566406
aF542.5237426757812
aF433.6090087890625
aF627.478271484375
aF593.3585205078125
aF597.7337646484375
aF475.283935546875
aF655.6032104492188
aF592.702880859375
aF574.0904541015625
aF583.41259765625
aF521.5285034179688
aF601.2971801757812
aF532.7809448242188
aF582.20849609375
aF589.8872680664062
aF520.3961181640625
aF632.9841918945312
aF513.91259765625
aF642.480224609375
aF636.3955688476562
aF588.8063354492188
aF660.9342041015625
aF581.99267578125
aF626.111328125
aF540.2298583984375
aF476.67657470703125
aF585.1939086914062
aF553.0220947265625
aF582.9730834960938
aF570.3773803710938
aF622.6987915039062
aF541.0217895507812
aF608.3145751953125
aF583.5309448242188
aF677.2034301757812
aF548.798828125
aF511.5193176269531
aF621.1661987304688
aF592.870361328125
aF571.9848022460938
aF656.0159912109375
aF582.047119140625
aF528.8719482421875
aF496.0262451171875
aF614.3978881835938
aF490.0697021484375
aF589.9197998046875
aF516.60498046875
aF537.0562744140625
aF706.609130859375
aF536.6006469726562
aF594.6521606445312
aF606.0376586914062
aF599.1224365234375
aF488.8984375
aF498.9870910644531
aF512.2418823242188
aF500.1420593261719
aF509.0562744140625
aF557.9730224609375
aF539.0874633789062
aF642.0274658203125
aF565.6372680664062
aF604.8367309570312
aF556.4293212890625
aF511.31134033203125
aF631.00537109375
aF594.7529907226562
aF499.86102294921875
aF572.4397583007812
aF561.3621215820312
aF625.4169311523438
aF621.528564453125
aF634.7862548828125
aF610.48486328125
aF615.237060546875
aF567.2108764648438
aF578.9761962890625
aF612.4349365234375
aF529.9693603515625
aF656.0220947265625
aF554.1082153320312
aF559.41650390625
aF552.9201049804688
aF543.030029296875
aF543.3479614257812
aF638.8978271484375
aF600.7539672851562
aF630.6174926757812
aF606.6722412109375
aF704.7901611328125
aF580.1990966796875
aF609.1510620117188
aF649.052978515625
aF446.4462585449219
aF704.9358520507812
aF495.2674865722656
aF623.5205078125
aF642.1468505859375
aF395.7080383300781
aF547.474365234375
aF522.4895629882812
aF567.8936767578125
aF563.8750610351562
aF482.5542297363281
aF463.1651306152344
aF434.2370910644531
aF608.57080078125
aF618.7369384765625
aF577.15576171875
aF545.1891479492188
aF463.6278076171875
aF489.97210693359375
aF557.2463989257812
aF700.890625
aF564.1776123046875
aF440.4031066894531
aF543.4889526367188
aF471.4552001953125
aF584.07373046875
aF596.1153564453125
aF653.379638671875
aF548.98388671875
aF569.6945190429688
aF590.4097900390625
aF642.507080078125
aF572.3148193359375
aF522.209228515625
aF533.27587890625
aF521.4900512695312
aF641.9641723632812
aF603.0879516601562
aF526.4081420898438
aF598.134033203125
aF545.7760620117188
aF667.1580200195312
aF539.385009765625
aF495.88433837890625
aF551.4847412109375
aF447.4296875
aF534.4335327148438
aF608.8929443359375
aF575.0347900390625
aF549.2205200195312
aF550.3306274414062
aF454.6861877441406
aF554.6517944335938
aF513.175048828125
aF507.5787353515625
aF555.3761596679688
aF645.1361083984375
aF483.96783447265625
aF511.2085266113281
aF536.2083129882812
aF456.5155029296875
aF620.0733642578125
aF465.4698791503906
aF552.2178955078125
aF542.5098266601562
aF651.64306640625
aF468.84185791015625
aF626.2826538085938
aF544.2493896484375
aF607.8352661132812
aF490.6394958496094
aF491.0389404296875
aF599.0773315429688
aF470.13409423828125
aF526.3984985351562
aF591.5230102539062
aF490.47314453125
aF604.1563720703125
aF577.8592529296875
aF473.19366455078125
aF585.7095947265625
aF512.9172973632812
aF534.6527099609375
aF515.6917114257812
aF516.4153442382812
aF473.68194580078125
aF484.29571533203125
aF573.4611206054688
aF531.9674072265625
aF461.59283447265625
aF490.5350036621094
aF458.25360107421875
aF542.1561279296875
aF525.8748168945312
aF594.0221557617188
aF529.6319580078125
aF592.5861206054688
aF492.411865234375
aF567.3038330078125
aF504.05059814453125
aF553.6980590820312
aF525.9092407226562
aF431.6668395996094
aF629.3618774414062
aF500.3084411621094
aF606.4098510742188
aF608.2531127929688
aF516.1285400390625
aF605.2083129882812
aF486.613525390625
aF546.1509399414062
aF538.2515258789062
aF550.7041015625
aF475.1690673828125
aF446.63226318359375
aF498.4934997558594
aF548.0258178710938
aF459.3194274902344
aF502.1768493652344
aF498.4761047363281
aF548.181884765625
aF463.1212158203125
aF475.85858154296875
aF523.6981811523438
aF569.8402709960938
aF517.7022094726562
aF588.7776489257812
aF626.4439086914062
aF493.6839599609375
aF464.2192077636719
aF498.1033935546875
aF569.877685546875
aF609.0349731445312
aF487.373291015625
aF504.5006103515625
aF538.1781005859375
aF620.8738403320312
aF532.6098022460938
aF542.8983764648438
aF570.12939453125
aF496.0853576660156
aF557.8439331054688
aF582.2679443359375
aF603.0703125
aF557.883056640625
aF608.7932739257812
aF472.3113708496094
aF607.93310546875
aF504.226318359375
aF473.8525695800781
aF499.2644348144531
aF622.6253051757812
aF437.6961669921875
aF442.74969482421875
aF594.9529418945312
aF512.1165771484375
aF537.4168701171875
aF479.3780822753906
aF620.9949340820312
aF482.3019104003906
aF486.9883117675781
aF505.6558532714844
aF567.1795654296875
aF567.8880615234375
aF561.86328125
aF620.0390014648438
aF626.5297241210938
aF517.1854248046875
aF547.4999389648438
aF534.2042846679688
aF489.2200622558594
aF473.4912109375
aF399.6754150390625
aF494.1575012207031
aF481.5997314453125
aF453.1986083984375
aF572.5390014648438
aF624.1968383789062
aF521.9207763671875
aF603.2894287109375
aF475.16754150390625
aF502.46905517578125
aF571.6134643554688
aF486.8186340332031
aF562.832763671875
aF591.6801147460938
aF432.94952392578125
aF601.9823608398438
aF465.9225769042969
aF596.8368530273438
aF493.80914306640625
aF496.0503845214844
aF620.969482421875
aF420.7891540527344
aF635.2401123046875
aF448.805908203125
aF418.6104431152344
aF501.29205322265625
aF574.91455078125
aF550.8839721679688
aF574.4409790039062
aF513.6854858398438
aF480.6551513671875
aF569.2704467773438
aF598.4751586914062
aF540.9376220703125
aF448.6909484863281
aF467.72723388671875
aF527.289794921875
aF535.4467163085938
aF502.41802978515625
aF591.177978515625
aF511.3840637207031
aF641.3146362304688
aF489.14666748046875
aF539.9974365234375
aF468.22052001953125
aF561.4475708007812
aF482.91522216796875
aF485.3114318847656
aF508.1979675292969
aF568.974853515625
aF549.8445434570312
aF452.8300476074219
aF679.1596069335938
aF467.86248779296875
aF388.7483825683594
aF661.4464721679688
aF532.00732421875
aF565.4290161132812
aF478.6834411621094
aF517.1802368164062
aF487.976318359375
aF494.3912048339844
aF448.67822265625
aF519.2793579101562
aF542.1000366210938
aF475.629638671875
aF469.69158935546875
aF559.6272583007812
aF505.5715637207031
aF573.513427734375
aF476.3995666503906
aF551.990966796875
aF524.8419799804688
aF472.82879638671875
aF440.39837646484375
aF461.1253356933594
aF532.2781372070312
aF527.0036010742188
aF460.7457580566406
aF443.4054870605469
aF453.3298645019531
aF595.0120239257812
aF456.6493835449219
aF572.0172729492188
aF472.1444091796875
aF497.40960693359375
aF462.11822509765625
aF523.8724365234375
aF498.5442199707031
aF687.0131225585938
aF528.2291870117188
aF493.75335693359375
aF494.9237976074219
aF569.338134765625
aF435.99371337890625
aF524.5117797851562
aF566.8405151367188
aF499.4182434082031
aF570.157958984375
aF570.6339721679688
aF565.9281616210938
aF531.9520874023438
aF502.2431640625
aF475.9124755859375
aF459.9443054199219
aF541.1956176757812
aF542.7800903320312
aF542.4393920898438
aF647.014404296875
aF430.96240234375
aF456.8081970214844
aF590.5042724609375
aF580.6848754882812
aF488.469482421875
aF385.8136901855469
aF536.920654296875
aF427.5325927734375
aF503.51763916015625
aF442.9529724121094
aF497.5181884765625
aF485.57861328125
aF449.34063720703125
aF433.0456237792969
aF599.1991577148438
aF551.434814453125
aF460.61614990234375
aF500.55401611328125
aF534.1431884765625
aF519.0226440429688
aF487.7133483886719
aF650.9053955078125
aF650.455078125
aF561.0324096679688
aF469.202392578125
aF550.9281005859375
aF542.1787109375
aF548.3815307617188
aF563.688232421875
aF566.6564331054688
aF477.61676025390625
aF478.1463928222656
aF536.5579833984375
aF574.7313232421875
aF556.4163208007812
aF600.7461547851562
aF477.36761474609375
aF382.39703369140625
aF539.4055786132812
aF489.1460876464844
aF483.97235107421875
aF471.6484069824219
aF428.8221130371094
aF501.102294921875
aF549.2008056640625
aF448.3042907714844
aF463.2436218261719
aF451.3387451171875
aF498.8725891113281
aF485.0830078125
aF533.7310180664062
aF487.7001647949219
aF433.5212707519531
aF461.9777526855469
aF378.8753967285156
aF448.6208801269531
aF438.73486328125
aF424.1639404296875
aF434.31060791015625
aF436.7445068359375
aF490.0539245605469
aF598.9920043945312
aF436.8755798339844
aF441.1291198730469
aF584.2149658203125
aF348.13983154296875
aF572.4212036132812
aF580.724609375
aF522.7574462890625
aF461.58258056640625
aF418.3293762207031
aF473.72857666015625
aF484.9770202636719
aF446.8060607910156
aF540.4443969726562
aF401.4809875488281
aF392.8092956542969
aF413.8437194824219
aF599.4044189453125
aF457.556396484375
aF608.8831787109375
aF407.6138610839844
aF562.3871459960938
aF469.4689636230469
aF538.9118041992188
aF487.10015869140625
aF416.0791015625
aF483.8989562988281
aF615.7046508789062
aF484.0519714355469
aF509.0143737792969
aF502.7850036621094
aF486.7911682128906
aF591.2672119140625
aF586.2318725585938
aF508.1495361328125
aF495.19793701171875
aF526.4767456054688
aF478.322021484375
aF442.5621337890625
aF367.21380615234375
aF464.9532470703125
aF521.1578979492188
aF563.0361328125
aF484.0603942871094
aF528.8193359375
aF486.823974609375
aF459.6282958984375
aF521.148193359375
aF438.66912841796875
aF524.5130615234375
aF538.4368286132812
aF469.65625
aF396.8288879394531
aF575.6431884765625
aF522.20703125
aF603.6611938476562
aF618.0631713867188
aF459.5463562011719
aF434.110107421875
aF621.9734497070312
aF491.4193115234375
aF501.2049560546875
aF457.1965026855469
aF453.1204528808594
aF583.5441284179688
aF536.5354614257812
aF606.7734375
aF480.7010803222656
aF414.20697021484375
aF502.2749938964844
aF440.29925537109375
aF468.4342041015625
aF613.4868774414062
aF528.3919677734375
aF508.93133544921875
aF438.2733154296875
aF450.37750244140625
aF633.4378662109375
aF528.8843994140625
aF465.43994140625
aF511.0535583496094
aF485.58984375
aF377.2469787597656
aF440.2840881347656
aF660.1843872070312
aF542.1202392578125
aF495.74261474609375
aF478.76220703125
aF521.4674072265625
aF457.03094482421875
aF507.8601379394531
aF594.2577514648438
aF525.1564331054688
aF545.30078125
aF440.7131042480469
aF603.7510986328125
aF524.2893676757812
aF437.71875
aF558.718505859375
aF490.3797302246094
aF359.5270080566406
aF558.8382568359375
aF487.6429138183594
aF444.83056640625
aF436.2503662109375
aF498.41949462890625
aF526.8557739257812
aF392.1974182128906
aF442.93572998046875
aF455.8988952636719
aF417.62982177734375
aF584.1321411132812
aF520.2321166992188
aF438.86810302734375
aF618.9512329101562
aF584.5834350585938
aF431.9660339355469
aF484.74884033203125
aF497.3587646484375
aF439.317138671875
aF540.635498046875
aF478.4326171875
aF469.2099304199219
aF498.3212585449219
aF530.708251953125
aF523.0740356445312
aF526.9390258789062
aF442.8056335449219
aF430.525634765625
aF398.659423828125
aF544.2810668945312
aF584.8247680664062
aF487.62640380859375
aF499.6885070800781
aF418.4442138671875
aF564.49951171875
aF381.87481689453125
aF519.65771484375
aF533.13818359375
aF498.2173767089844
aF585.9013671875
aF478.2016296386719
aF382.77862548828125
aF461.0384826660156
aF455.2057800292969
aF404.92205810546875
aF408.3565673828125
aF496.0948181152344
aF571.5134887695312
aF619.4385375976562
aF526.8382568359375
aF481.8516845703125
aF589.6151733398438
aF467.2662048339844
aF469.4090576171875
aF527.10498046875
aF422.3901062011719
aF525.1168212890625
aF484.9801330566406
aF451.48040771484375
aF459.01812744140625
aF405.7154235839844
aF533.5919189453125
aF441.574951171875
aF515.4867553710938
aF500.1013488769531
aF525.479248046875
aF386.99700927734375
aF419.3955383300781
aF543.8324584960938
aF423.9626159667969
aF460.2137451171875
aF466.99591064453125
aF469.1767883300781
aF419.22613525390625
aF473.54132080078125
aF533.6167602539062
aF403.45452880859375
aF525.3018798828125
aF551.89990234375
aF514.5126342773438
aF428.6596984863281
aF447.60400390625
aF418.06500244140625
aF473.31512451171875
aF497.0357666015625
aF400.5093994140625
aF507.28466796875
aF515.2101440429688
aF624.2097778320312
aF514.3085327148438
aF397.42047119140625
aF430.2362976074219
aF449.8126525878906
aF497.57733154296875
aF542.3496704101562
aF500.8554992675781
aF442.24658203125
aF367.31060791015625
aF522.6890869140625
aF540.5967407226562
aF393.0753173828125
aF488.5653076171875
aF517.7649536132812
aF455.285888671875
aF374.6248474121094
aF519.3115234375
aF510.3770751953125
aF436.51470947265625
aF456.1386413574219
aF522.0870971679688
aF589.02734375
aF480.20245361328125
aF444.0951843261719
aF417.4241027832031
aF524.7739868164062
aF437.330810546875
aF489.35009765625
aF452.5284118652344
aF618.0578002929688
aF487.39788818359375
aF465.423828125
aF456.2241516113281
aF524.2438354492188
aF441.3226318359375
aF565.2183227539062
aF422.2579040527344
aF493.06396484375
aF480.33270263671875
aF440.1640625
aF526.0316162109375
aF480.4263610839844
aF480.146484375
aF443.2550048828125
aF499.0466003417969
aF483.14031982421875
aF469.4121398925781
aF541.4735717773438
aF419.12164306640625
aF498.9429016113281
aF641.0978393554688
aF502.21514892578125
aF503.8264465332031
aF488.0436096191406
aF499.5170593261719
aF473.959228515625
aF522.718017578125
aF465.39727783203125
aF461.1105041503906
aF564.40771484375
aF475.301513671875
aF546.3819580078125
aF404.53350830078125
aF489.9732971191406
aF490.4822082519531
aF561.5020751953125
aF366.8619079589844
aF407.97906494140625
aF446.003662109375
aF480.1522216796875
aF470.5298156738281
aF428.2947692871094
aF481.3191833496094
aF554.420654296875
aa.